; Function Attrs: mustprogress nounwind uwtable
define internal fastcc noundef zeroext i1 @_ZN5clang19RecursiveASTVisitorIZNK12_GLOBAL__N_114PaddingChecker12checkASTDeclEPKNS_19TranslationUnitDeclERNS_4ento15AnalysisManagerERNS6_11BugReporterEE12LocalVisitorE18VisitOMPClauseListINS_22OMPUseDeviceAddrClauseEEEbPT_(ptr noundef nonnull align 1 dereferenceable(1) %0, ptr noundef readonly %1) unnamed_addr #0 align 2 {
  %3 = getelementptr inbounds nuw i8, ptr %1, i64 16
  %4 = load i32, ptr %3, align 4
  %5 = zext i32 %4 to i64
  %.idx = shl nuw nsw i64 %5, 3
  %6 = getelementptr inbounds i8, ptr %1, i64 %.idx
  %.ptr16 = getelementptr inbounds i8, ptr %6, i64 80
  %.not11 = icmp eq i32 %4, 0
  br i1 %.not11, label %._crit_edge, label %.lr.ph.preheader

.lr.ph.preheader:                                 ; preds = %2
  %.ptr = getelementptr inbounds i8, ptr %1, i64 80
  br label %.lr.ph

.lr.ph:                                           ; preds = %.lr.ph, %.lr.ph.preheader
  %.01012 = phi ptr [ %.ptr, %.lr.ph.preheader ], [ %9, %.lr.ph ]
  %7 = load ptr, ptr %.01012, align 8
  %8 = tail call fastcc noundef zeroext i1 @_ZN5clang19RecursiveASTVisitorIZNK12_GLOBAL__N_114PaddingChecker12checkASTDeclEPKNS_19TranslationUnitDeclERNS_4ento15AnalysisManagerERNS6_11BugReporterEE12LocalVisitorE12TraverseStmtEPNS_4StmtEPN4llvm15SmallVectorImplINSF_14PointerIntPairISE_Lj1EbNSF_21PointerLikeTypeTraitsISE_EENSF_18PointerIntPairInfoISE_Lj1ESJ_EEEEEE(ptr noundef nonnull align 1 dereferenceable(1) %0, ptr noundef %7, ptr noundef null)
  %9 = getelementptr inbounds i8, ptr %.01012, i64 8
  %.not = icmp ne ptr %9, %.ptr16
  %or.cond.not = select i1 %8, i1 %.not, i1 false
  br i1 %or.cond.not, label %.lr.ph, label %._crit_edge

._crit_edge:                                      ; preds = %.lr.ph, %2
  %.not.lcssa = phi i1 [ true, %2 ], [ %8, %.lr.ph ]
  ret i1 %.not.lcssa
}